; ModuleID = '38/357.c'
source_filename = "38/357.c"
target datalayout = "e-m:e-p270:32:32-p271:32:32-p272:64:64-i64:64-f80:128-n8:16:32:64-S128"
target triple = "x86_64-pc-linux-gnu"

@.str = private unnamed_addr constant [3 x i8] c"%d\00", align 1
@.str.1 = private unnamed_addr constant [4 x i8] c"%lf\00", align 1
@.str.2 = private unnamed_addr constant [6 x i8] c"%.5f\0A\00", align 1

; Function Attrs: noinline nounwind uwtable
define dso_local i32 @main() #0 {
  %1 = alloca i32, align 4
  %2 = alloca i32, align 4
  %3 = alloca [100 x i32], align 16
  %4 = alloca i32, align 4
  %5 = alloca i32, align 4
  %6 = alloca [100 x [100 x double]], align 16
  %7 = alloca [100 x double], align 16
  %8 = alloca [100 x double], align 16
  %9 = alloca double, align 8
  store i32 0, i32* %1, align 4
  %10 = call i32 (i8*, ...) @__isoc99_scanf(i8* getelementptr inbounds ([3 x i8], [3 x i8]* @.str, i64 0, i64 0), i32* %2)
  store i32 0, i32* %4, align 4
  br label %11

11:                                               ; preds = %39, %0
  %12 = load i32, i32* %4, align 4
  %13 = load i32, i32* %2, align 4
  %14 = icmp slt i32 %12, %13
  br i1 %14, label %15, label %42

15:                                               ; preds = %11
  %16 = load i32, i32* %4, align 4
  %17 = sext i32 %16 to i64
  %18 = getelementptr inbounds [100 x i32], [100 x i32]* %3, i64 0, i64 %17
  %19 = call i32 (i8*, ...) @__isoc99_scanf(i8* getelementptr inbounds ([3 x i8], [3 x i8]* @.str, i64 0, i64 0), i32* %18)
  store i32 0, i32* %5, align 4
  br label %20

20:                                               ; preds = %35, %15
  %21 = load i32, i32* %5, align 4
  %22 = load i32, i32* %4, align 4
  %23 = sext i32 %22 to i64
  %24 = getelementptr inbounds [100 x i32], [100 x i32]* %3, i64 0, i64 %23
  %25 = load i32, i32* %24, align 4
  %26 = icmp slt i32 %21, %25
  br i1 %26, label %27, label %38

27:                                               ; preds = %20
  %28 = load i32, i32* %4, align 4
  %29 = sext i32 %28 to i64
  %30 = getelementptr inbounds [100 x [100 x double]], [100 x [100 x double]]* %6, i64 0, i64 %29
  %31 = load i32, i32* %5, align 4
  %32 = sext i32 %31 to i64
  %33 = getelementptr inbounds [100 x double], [100 x double]* %30, i64 0, i64 %32
  %34 = call i32 (i8*, ...) @__isoc99_scanf(i8* getelementptr inbounds ([4 x i8], [4 x i8]* @.str.1, i64 0, i64 0), double* %33)
  br label %35

35:                                               ; preds = %27
  %36 = load i32, i32* %5, align 4
  %37 = add nsw i32 %36, 1
  store i32 %37, i32* %5, align 4
  br label %20

38:                                               ; preds = %20
  br label %39

39:                                               ; preds = %38
  %40 = load i32, i32* %4, align 4
  %41 = add nsw i32 %40, 1
  store i32 %41, i32* %4, align 4
  br label %11

42:                                               ; preds = %11
  store i32 0, i32* %4, align 4
  br label %43

43:                                               ; preds = %165, %42
  %44 = load i32, i32* %4, align 4
  %45 = load i32, i32* %2, align 4
  %46 = icmp slt i32 %44, %45
  br i1 %46, label %47, label %168

47:                                               ; preds = %43
  %48 = load i32, i32* %4, align 4
  %49 = sext i32 %48 to i64
  %50 = getelementptr inbounds [100 x double], [100 x double]* %7, i64 0, i64 %49
  store double 0.000000e+00, double* %50, align 8
  %51 = load i32, i32* %4, align 4
  %52 = sext i32 %51 to i64
  %53 = getelementptr inbounds [100 x double], [100 x double]* %8, i64 0, i64 %52
  store double 0.000000e+00, double* %53, align 8
  store i32 0, i32* %5, align 4
  br label %54

54:                                               ; preds = %77, %47
  %55 = load i32, i32* %5, align 4
  %56 = load i32, i32* %4, align 4
  %57 = sext i32 %56 to i64
  %58 = getelementptr inbounds [100 x i32], [100 x i32]* %3, i64 0, i64 %57
  %59 = load i32, i32* %58, align 4
  %60 = icmp slt i32 %55, %59
  br i1 %60, label %61, label %80

61:                                               ; preds = %54
  %62 = load i32, i32* %4, align 4
  %63 = sext i32 %62 to i64
  %64 = getelementptr inbounds [100 x double], [100 x double]* %7, i64 0, i64 %63
  %65 = load double, double* %64, align 8
  %66 = load i32, i32* %4, align 4
  %67 = sext i32 %66 to i64
  %68 = getelementptr inbounds [100 x [100 x double]], [100 x [100 x double]]* %6, i64 0, i64 %67
  %69 = load i32, i32* %5, align 4
  %70 = sext i32 %69 to i64
  %71 = getelementptr inbounds [100 x double], [100 x double]* %68, i64 0, i64 %70
  %72 = load double, double* %71, align 8
  %73 = fadd double %65, %72
  %74 = load i32, i32* %4, align 4
  %75 = sext i32 %74 to i64
  %76 = getelementptr inbounds [100 x double], [100 x double]* %7, i64 0, i64 %75
  store double %73, double* %76, align 8
  br label %77

77:                                               ; preds = %61
  %78 = load i32, i32* %5, align 4
  %79 = add nsw i32 %78, 1
  store i32 %79, i32* %5, align 4
  br label %54

80:                                               ; preds = %54
  %81 = load i32, i32* %4, align 4
  %82 = sext i32 %81 to i64
  %83 = getelementptr inbounds [100 x double], [100 x double]* %7, i64 0, i64 %82
  %84 = load double, double* %83, align 8
  %85 = load i32, i32* %4, align 4
  %86 = sext i32 %85 to i64
  %87 = getelementptr inbounds [100 x i32], [100 x i32]* %3, i64 0, i64 %86
  %88 = load i32, i32* %87, align 4
  %89 = sitofp i32 %88 to double
  %90 = fdiv double %84, %89
  %91 = load i32, i32* %4, align 4
  %92 = sext i32 %91 to i64
  %93 = getelementptr inbounds [100 x double], [100 x double]* %7, i64 0, i64 %92
  store double %90, double* %93, align 8
  store i32 0, i32* %5, align 4
  br label %94

94:                                               ; preds = %135, %80
  %95 = load i32, i32* %5, align 4
  %96 = load i32, i32* %4, align 4
  %97 = sext i32 %96 to i64
  %98 = getelementptr inbounds [100 x i32], [100 x i32]* %3, i64 0, i64 %97
  %99 = load i32, i32* %98, align 4
  %100 = icmp slt i32 %95, %99
  br i1 %100, label %101, label %138

101:                                              ; preds = %94
  %102 = load i32, i32* %4, align 4
  %103 = sext i32 %102 to i64
  %104 = getelementptr inbounds [100 x double], [100 x double]* %8, i64 0, i64 %103
  %105 = load double, double* %104, align 8
  %106 = load i32, i32* %4, align 4
  %107 = sext i32 %106 to i64
  %108 = getelementptr inbounds [100 x double], [100 x double]* %7, i64 0, i64 %107
  %109 = load double, double* %108, align 8
  %110 = load i32, i32* %4, align 4
  %111 = sext i32 %110 to i64
  %112 = getelementptr inbounds [100 x [100 x double]], [100 x [100 x double]]* %6, i64 0, i64 %111
  %113 = load i32, i32* %5, align 4
  %114 = sext i32 %113 to i64
  %115 = getelementptr inbounds [100 x double], [100 x double]* %112, i64 0, i64 %114
  %116 = load double, double* %115, align 8
  %117 = fsub double %109, %116
  %118 = load i32, i32* %4, align 4
  %119 = sext i32 %118 to i64
  %120 = getelementptr inbounds [100 x double], [100 x double]* %7, i64 0, i64 %119
  %121 = load double, double* %120, align 8
  %122 = load i32, i32* %4, align 4
  %123 = sext i32 %122 to i64
  %124 = getelementptr inbounds [100 x [100 x double]], [100 x [100 x double]]* %6, i64 0, i64 %123
  %125 = load i32, i32* %5, align 4
  %126 = sext i32 %125 to i64
  %127 = getelementptr inbounds [100 x double], [100 x double]* %124, i64 0, i64 %126
  %128 = load double, double* %127, align 8
  %129 = fsub double %121, %128
  %130 = fmul double %117, %129
  %131 = fadd double %105, %130
  %132 = load i32, i32* %4, align 4
  %133 = sext i32 %132 to i64
  %134 = getelementptr inbounds [100 x double], [100 x double]* %8, i64 0, i64 %133
  store double %131, double* %134, align 8
  br label %135

135:                                              ; preds = %101
  %136 = load i32, i32* %5, align 4
  %137 = add nsw i32 %136, 1
  store i32 %137, i32* %5, align 4
  br label %94

138:                                              ; preds = %94
  %139 = load i32, i32* %4, align 4
  %140 = sext i32 %139 to i64
  %141 = getelementptr inbounds [100 x double], [100 x double]* %8, i64 0, i64 %140
  %142 = load double, double* %141, align 8
  %143 = load i32, i32* %4, align 4
  %144 = sext i32 %143 to i64
  %145 = getelementptr inbounds [100 x i32], [100 x i32]* %3, i64 0, i64 %144
  %146 = load i32, i32* %145, align 4
  %147 = sitofp i32 %146 to double
  %148 = fdiv double %142, %147
  %149 = load i32, i32* %4, align 4
  %150 = sext i32 %149 to i64
  %151 = getelementptr inbounds [100 x double], [100 x double]* %8, i64 0, i64 %150
  store double %148, double* %151, align 8
  %152 = load i32, i32* %4, align 4
  %153 = sext i32 %152 to i64
  %154 = getelementptr inbounds [100 x double], [100 x double]* %8, i64 0, i64 %153
  %155 = load double, double* %154, align 8
  %156 = call double @sqrt(double %155) #3
  %157 = load i32, i32* %4, align 4
  %158 = sext i32 %157 to i64
  %159 = getelementptr inbounds [100 x double], [100 x double]* %8, i64 0, i64 %158
  store double %156, double* %159, align 8
  %160 = load i32, i32* %4, align 4
  %161 = sext i32 %160 to i64
  %162 = getelementptr inbounds [100 x double], [100 x double]* %8, i64 0, i64 %161
  %163 = load double, double* %162, align 8
  %164 = call i32 (i8*, ...) @printf(i8* getelementptr inbounds ([6 x i8], [6 x i8]* @.str.2, i64 0, i64 0), double %163)
  br label %165

165:                                              ; preds = %138
  %166 = load i32, i32* %4, align 4
  %167 = add nsw i32 %166, 1
  store i32 %167, i32* %4, align 4
  br label %43

168:                                              ; preds = %43
  ret i32 0
}

declare dso_local i32 @__isoc99_scanf(i8*, ...) #1

; Function Attrs: nounwind
declare dso_local double @sqrt(double) #2

declare dso_local i32 @printf(i8*, ...) #1


!llvm.module.flags = !{!0}
!llvm.ident = !{!1}

!0 = !{i32 1, !"wchar_size", i32 4}
!1 = !{!"clang version 10.0.0-4ubuntu1 "}
